target datalayout = "e-m:e-p270:32:32-p271:32:32-p272:64:64-i64:64-i128:128-f80:128-n8:16:32:64-S128"
target triple = "x86_64-pc-linux-gnu"

%"struct.duckdb::dtime_t" = type { i64 }
%"struct.duckdb::dtime_tz_t" = type { i64 }

; Function Attrs: inlinehint mustprogress nounwind uwtable
define linkonce_odr noundef i64 @_ZN6duckdb10dtime_tz_t13encode_microsEm(i64 noundef %0) #5 comdat align 2 {
  %2 = alloca i64, align 8
  store i64 %0, ptr %2, align 8, !tbaa !11
  %3 = load i64, ptr %2, align 8, !tbaa !11
  %4 = shl i64 %3, 24
  ret i64 %4
}

; Function Attrs: mustprogress nounwind uwtable
define linkonce_odr noundef i64 @_ZN6duckdb17UnsafeNumericCastImlvEET_T0_(i64 noundef %0) #2 comdat {
  %2 = alloca i64, align 8
  store i64 %0, ptr %2, align 8, !tbaa !11
  %3 = load i64, ptr %2, align 8, !tbaa !11
  ret i64 %3
}

; Function Attrs: inlinehint mustprogress nounwind uwtable
define linkonce_odr noundef i64 @_ZN6duckdb10dtime_tz_t13encode_offsetEi(i32 noundef %0) #5 comdat align 2 {
  %2 = alloca i32, align 4
  store i32 %0, ptr %2, align 4, !tbaa !15
  %3 = load i32, ptr %2, align 4, !tbaa !15
  %4 = sub nsw i32 57599, %3
  %5 = sext i32 %4 to i64
  ret i64 %5
}

; Function Attrs: inlinehint mustprogress uwtable
define linkonce_odr noundef i64 @_ZN6duckdb10dtime_tz_t13encode_microsEl(i64 noundef %0) #6 comdat align 2 {
  %2 = alloca i64, align 8
  store i64 %0, ptr %2, align 8, !tbaa !11
  %3 = load i64, ptr %2, align 8, !tbaa !11
  %4 = call noundef i64 @_ZN6duckdb17UnsafeNumericCastImlvEET_T0_(i64 noundef %3)
  %5 = call noundef i64 @_ZN6duckdb10dtime_tz_t13encode_microsEm(i64 noundef %4)
  ret i64 %5
}

; Function Attrs: inlinehint mustprogress uwtable
define linkonce_odr void @_ZN6duckdb10dtime_tz_tC2ENS_7dtime_tEi(ptr noundef nonnull align 8 dereferenceable(8) %0, i64 %1, i32 noundef %2) unnamed_addr #6 comdat align 2 {
  %4 = alloca %"struct.duckdb::dtime_t", align 8
  %5 = alloca ptr, align 8
  %6 = alloca i32, align 4
  %7 = getelementptr inbounds nuw %"struct.duckdb::dtime_t", ptr %4, i32 0, i32 0
  store i64 %1, ptr %7, align 8
  store ptr %0, ptr %5, align 8, !tbaa !31
  store i32 %2, ptr %6, align 4, !tbaa !15
  %8 = load ptr, ptr %5, align 8
  %9 = getelementptr inbounds nuw %"struct.duckdb::dtime_tz_t", ptr %8, i32 0, i32 0
  %10 = getelementptr inbounds nuw %"struct.duckdb::dtime_t", ptr %4, i32 0, i32 0
  %11 = load i64, ptr %10, align 8, !tbaa !29
  %12 = call noundef i64 @_ZN6duckdb10dtime_tz_t13encode_microsEl(i64 noundef %11)
  %13 = load i32, ptr %6, align 4, !tbaa !15
  %14 = call noundef i64 @_ZN6duckdb10dtime_tz_t13encode_offsetEi(i32 noundef %13)
  %15 = or i64 %12, %14
  store i64 %15, ptr %9, align 8, !tbaa !33
  ret void
}

; Function Attrs: mustprogress nounwind uwtable
define internal noundef i32 @_ZN6duckdbL15ParquetWrapTimeIiEET_RKS1_S1_(ptr noundef nonnull align 4 dereferenceable(4) %0, i32 noundef %1) #2 {
  %3 = alloca i32, align 4
  %4 = alloca ptr, align 8
  %5 = alloca i32, align 4
  %6 = alloca i32, align 4
  store ptr %0, ptr %4, align 8, !tbaa !21
  store i32 %1, ptr %5, align 4, !tbaa !15
  %7 = load ptr, ptr %4, align 8, !tbaa !21
  %8 = load i32, ptr %7, align 4, !tbaa !15
  %9 = load i32, ptr %5, align 4, !tbaa !15
  %10 = icmp eq i32 %8, %9
  br i1 %10, label %11, label %14

11:                                               ; preds = %2
  %12 = load ptr, ptr %4, align 8, !tbaa !21
  %13 = load i32, ptr %12, align 4, !tbaa !15
  store i32 %13, ptr %3, align 4
  br label %26

14:                                               ; preds = %2
  call void @llvm.lifetime.start.p0(i64 4, ptr %6) #7
  %15 = load ptr, ptr %4, align 8, !tbaa !21
  %16 = load i32, ptr %15, align 4, !tbaa !15
  %17 = load i32, ptr %5, align 4, !tbaa !15
  %18 = srem i32 %16, %17
  store i32 %18, ptr %6, align 4, !tbaa !15
  %19 = load i32, ptr %6, align 4, !tbaa !15
  %20 = load i32, ptr %6, align 4, !tbaa !15
  %21 = icmp slt i32 %20, 0
  %22 = zext i1 %21 to i32
  %23 = load i32, ptr %5, align 4, !tbaa !15
  %24 = mul nsw i32 %22, %23
  %25 = add nsw i32 %19, %24
  store i32 %25, ptr %3, align 4
  call void @llvm.lifetime.end.p0(i64 4, ptr %6) #7
  br label %26

26:                                               ; preds = %14, %11
  %27 = load i32, ptr %3, align 4
  ret i32 %27
}

; Function Attrs: mustprogress uwtable
define i64 @_ZN6duckdb20ParquetIntToTimeMsTZERKi(ptr noundef nonnull align 4 dereferenceable(4) %0) #0 {
  %2 = alloca %"struct.duckdb::dtime_tz_t", align 8
  %3 = alloca ptr, align 8
  %4 = alloca i32, align 4
  %5 = alloca i32, align 4
  %6 = alloca %"struct.duckdb::dtime_t", align 8
  store ptr %0, ptr %3, align 8, !tbaa !21
  call void @llvm.lifetime.start.p0(i64 4, ptr %4) #7
  store i32 86400000, ptr %4, align 4, !tbaa !15
  call void @llvm.lifetime.start.p0(i64 4, ptr %5) #7
  %7 = load ptr, ptr %3, align 8, !tbaa !21
  %8 = call noundef i32 @_ZN6duckdbL15ParquetWrapTimeIiEET_RKS1_S1_(ptr noundef nonnull align 4 dereferenceable(4) %7, i32 noundef 86400000)
  store i32 %8, ptr %5, align 4, !tbaa !15
  %9 = load i32, ptr %5, align 4, !tbaa !15
  %10 = sext i32 %9 to i64
  %11 = call i64 @_ZN6duckdb4Time10FromTimeMsEl(i64 noundef %10)
  %12 = getelementptr inbounds nuw %"struct.duckdb::dtime_t", ptr %6, i32 0, i32 0
  store i64 %11, ptr %12, align 8
  %13 = getelementptr inbounds nuw %"struct.duckdb::dtime_t", ptr %6, i32 0, i32 0
  %14 = load i64, ptr %13, align 8
  call void @_ZN6duckdb10dtime_tz_tC2ENS_7dtime_tEi(ptr noundef nonnull align 8 dereferenceable(8) %2, i64 %14, i32 noundef 0)
  call void @llvm.lifetime.end.p0(i64 4, ptr %5) #7
  call void @llvm.lifetime.end.p0(i64 4, ptr %4) #7
  %15 = getelementptr inbounds nuw %"struct.duckdb::dtime_tz_t", ptr %2, i32 0, i32 0
  %16 = load i64, ptr %15, align 8
  ret i64 %16
}