; Function Attrs: mustprogress uwtable
define range(i64 57599, -16711680) i64 @_ZN6duckdb20ParquetIntToTimeMsTZERKi(ptr noundef nonnull readonly align 4 captures(none) dereferenceable(4) %0) local_unnamed_addr #1 {
  %.val = load i32, ptr %0, align 4, !tbaa !3
  %2 = icmp eq i32 %.val, 86400000
  br i1 %2, label %_ZN6duckdbL15ParquetWrapTimeIiEET_RKS1_S1_.exit, label %3

3:                                                ; preds = %1
  %4 = srem i32 %.val, 86400000
  %isneg.i = icmp slt i32 %4, 0
  %5 = select i1 %isneg.i, i32 86400000, i32 0
  %6 = add nsw i32 %5, %4
  %7 = sext i32 %6 to i64
  br label %_ZN6duckdbL15ParquetWrapTimeIiEET_RKS1_S1_.exit

_ZN6duckdbL15ParquetWrapTimeIiEET_RKS1_S1_.exit:  ; preds = %1, %3
  %.0.i = phi i64 [ %7, %3 ], [ 86400000, %1 ]
  %8 = tail call i64 @_ZN6duckdb4Time10FromTimeMsEl(i64 noundef %.0.i)
  %9 = shl i64 %8, 24
  %10 = or disjoint i64 %9, 57599
  ret i64 %10
}